; Function Attrs: mustprogress uwtable
define void @_ZNK6icu_778numparse4impl22RequireNumberValidator11postProcessERNS1_12ParsedNumberE(ptr nonnull readnone align 8 captures(none) %0, ptr noundef nonnull align 8 dereferenceable(216) %1) unnamed_addr #1 align 2 {
  %3 = tail call noundef zeroext i1 @_ZNK6icu_778numparse4impl12ParsedNumber10seenNumberEv(ptr noundef nonnull align 8 dereferenceable(216) %1)
  br i1 %3, label %8, label %4

4:                                                ; preds = %2
  %5 = getelementptr inbounds nuw i8, ptr %1, i64 76
  %6 = load i32, ptr %5, align 4, !tbaa !6
  %7 = or i32 %6, 256
  store i32 %7, ptr %5, align 4, !tbaa !6
  br label %8

8:                                                ; preds = %4, %2
  ret void
}